; Function Attrs: nounwind sspstrong uwtable
define ptr @ossl_evp_get_cipherbyname(i64 noundef %0) local_unnamed_addr #0 {
  %2 = alloca i64, align 8
  store i64 %0, ptr %2, align 8, !tbaa !6
  %3 = load i64, ptr @cCipher, align 8, !tbaa !6
  %4 = tail call i64 @rb_obj_is_kind_of(i64 noundef %0, i64 noundef %3) #11
  %.not = icmp eq i64 %4, 0
  br i1 %.not, label %11, label %5

5:                                                ; preds = %1
  %6 = tail call ptr @rb_check_typeddata(i64 noundef %0, ptr noundef nonnull @ossl_cipher_type) #11
  %.not8 = icmp eq ptr %6, null
  br i1 %.not8, label %7, label %9

7:                                                ; preds = %5
  %8 = load i64, ptr @rb_eRuntimeError, align 8, !tbaa !6
  tail call void (i64, ptr, ...) @ossl_raise(i64 noundef %8, ptr noundef nonnull @.str) #12
  unreachable

9:                                                ; preds = %5
  %10 = tail call ptr @EVP_CIPHER_CTX_cipher(ptr noundef nonnull %6) #11
  br label %23

11:                                               ; preds = %1
  %12 = call ptr @rb_string_value_cstr(ptr noundef nonnull %2) #11
  %13 = load i64, ptr %2, align 8, !tbaa !6
  %14 = inttoptr i64 %13 to ptr
  %15 = load i64, ptr %14, align 8, !tbaa !10, !noalias !12
  %16 = and i64 %15, 8192
  %.not.i.i = icmp eq i64 %16, 0
  %17 = getelementptr inbounds nuw i8, ptr %14, i64 24
  br i1 %.not.i.i, label %RSTRING_PTR.exit, label %18

18:                                               ; preds = %11
  %.sroa.2.0.copyload.i = load ptr, ptr %17, align 8
  br label %RSTRING_PTR.exit

RSTRING_PTR.exit:                                 ; preds = %11, %18
  %.sroa.2.0.i = phi ptr [ %.sroa.2.0.copyload.i, %18 ], [ %17, %11 ]
  %19 = call ptr @EVP_get_cipherbyname(ptr noundef %.sroa.2.0.i) #11
  %.not7 = icmp eq ptr %19, null
  br i1 %.not7, label %20, label %23

20:                                               ; preds = %RSTRING_PTR.exit
  %21 = load i64, ptr @rb_eArgError, align 8, !tbaa !6
  %22 = load i64, ptr %2, align 8, !tbaa !6
  call void (i64, ptr, ...) @ossl_raise(i64 noundef %21, ptr noundef nonnull @.str.1, i64 noundef %22) #12
  unreachable

23:                                               ; preds = %RSTRING_PTR.exit, %9
  %.0 = phi ptr [ %10, %9 ], [ %19, %RSTRING_PTR.exit ]
  ret ptr %.0
}